; Function Attrs: nounwind sspstrong uwtable
define internal i64 @io_buffer_write_internal(ptr noundef captures(none) %0) #0 {
  %2 = getelementptr inbounds nuw i8, ptr %0, i64 8
  %3 = getelementptr inbounds nuw i8, ptr %0, i64 16
  %4 = load i32, ptr %0, align 8, !tbaa !66
  %5 = load ptr, ptr %2, align 8, !tbaa !68
  %6 = load i64, ptr %3, align 8, !tbaa !69
  %7 = tail call i64 @write(i32 noundef %4, ptr noundef %5, i64 noundef %6) #25
  %8 = icmp slt i64 %7, 0
  br i1 %8, label %._crit_edge, label %.lr.ph

.lr.ph:                                           ; preds = %1
  %9 = getelementptr inbounds nuw i8, ptr %0, i64 24
  br label %20

._crit_edge:                                      ; preds = %rb_fiber_scheduler_io_result.exit, %1
  %.lcssa = phi i64 [ %7, %1 ], [ %47, %rb_fiber_scheduler_io_result.exit ]
  %10 = tail call ptr @rb_errno_ptr() #25
  %11 = icmp eq i64 %.lcssa, -1
  br i1 %11, label %12, label %18

12:                                               ; preds = %._crit_edge
  %13 = load i32, ptr %10, align 4, !tbaa !34
  %14 = sub i32 0, %13
  %15 = sext i32 %14 to i64
  %16 = shl nsw i64 %15, 1
  %17 = or disjoint i64 %16, 1
  br label %49

18:                                               ; preds = %._crit_edge
  %19 = tail call i64 @rb_ull2inum(i64 noundef %.lcssa) #25
  br label %49

20:                                               ; preds = %.lr.ph, %rb_fiber_scheduler_io_result.exit
  %21 = phi i64 [ %7, %.lr.ph ], [ %47, %rb_fiber_scheduler_io_result.exit ]
  %.02140 = phi i64 [ 0, %.lr.ph ], [ %31, %rb_fiber_scheduler_io_result.exit ]
  %22 = icmp eq i64 %21, 0
  br i1 %22, label %23, label %30

23:                                               ; preds = %20
  %24 = icmp ult i64 %.02140, 4611686018427387904
  br i1 %24, label %25, label %28

25:                                               ; preds = %23
  %26 = shl nuw nsw i64 %.02140, 1
  %27 = or disjoint i64 %26, 1
  br label %49

28:                                               ; preds = %23
  %29 = tail call i64 @rb_ull2inum(i64 noundef %.02140) #25
  br label %49

30:                                               ; preds = %20
  %31 = add i64 %21, %.02140
  %32 = load i64, ptr %9, align 8, !tbaa !70
  %.not = icmp ult i64 %31, %32
  br i1 %.not, label %rb_fiber_scheduler_io_result.exit, label %33

33:                                               ; preds = %30
  %34 = icmp eq i64 %31, -1
  br i1 %34, label %49, label %35

35:                                               ; preds = %33
  %36 = icmp ult i64 %31, 4611686018427387904
  br i1 %36, label %37, label %40

37:                                               ; preds = %35
  %38 = shl nuw nsw i64 %31, 1
  %39 = or disjoint i64 %38, 1
  br label %49

40:                                               ; preds = %35
  %41 = tail call i64 @rb_ull2inum(i64 noundef %31) #25
  br label %49

rb_fiber_scheduler_io_result.exit:                ; preds = %30
  %42 = load ptr, ptr %2, align 8, !tbaa !68
  %43 = getelementptr i8, ptr %42, i64 %21
  store ptr %43, ptr %2, align 8, !tbaa !68
  %44 = load i64, ptr %3, align 8, !tbaa !69
  %45 = sub i64 %44, %21
  store i64 %45, ptr %3, align 8, !tbaa !69
  %46 = load i32, ptr %0, align 8, !tbaa !66
  %47 = tail call i64 @write(i32 noundef %46, ptr noundef %43, i64 noundef %45) #25
  %48 = icmp slt i64 %47, 0
  br i1 %48, label %._crit_edge, label %20

49:                                               ; preds = %12, %18, %25, %28, %33, %37, %40
  %.1.ph = phi i64 [ 1, %33 ], [ %41, %40 ], [ %39, %37 ], [ %29, %28 ], [ %27, %25 ], [ %19, %18 ], [ %17, %12 ]
  ret i64 %.1.ph
}